; Function Attrs: mustprogress nofree norecurse nosync nounwind willreturn memory(argmem: read) uwtable
define dso_local range(i64 0, 4611686018427387904) i64 @ossl_quic_vlint_decode_unchecked(ptr noundef readonly captures(none) %0) local_unnamed_addr #1 {
  %2 = load i8, ptr %0, align 1, !tbaa !4
  %3 = lshr i8 %2, 6
  %4 = zext nneg i8 %3 to i32
  %5 = shl nuw nsw i32 1, %4
  %6 = and i8 %2, 63
  %7 = zext nneg i8 %6 to i64
  switch i32 %5, label %22 [
    i32 1, label %58
    i32 2, label %8
    i32 4, label %10
  ]

8:                                                ; preds = %1
  %9 = shl nuw nsw i64 %7, 8
  br label %.sink.split

10:                                               ; preds = %1
  %11 = shl nuw nsw i64 %7, 24
  %12 = getelementptr inbounds nuw i8, ptr %0, i64 1
  %13 = load i8, ptr %12, align 1, !tbaa !4
  %14 = zext i8 %13 to i64
  %15 = shl nuw nsw i64 %14, 16
  %16 = or disjoint i64 %15, %11
  %17 = getelementptr inbounds nuw i8, ptr %0, i64 2
  %18 = load i8, ptr %17, align 1, !tbaa !4
  %19 = zext i8 %18 to i64
  %20 = shl nuw nsw i64 %19, 8
  %21 = or disjoint i64 %16, %20
  br label %.sink.split

22:                                               ; preds = %1
  %23 = shl nuw nsw i64 %7, 56
  %24 = getelementptr inbounds nuw i8, ptr %0, i64 1
  %25 = load i8, ptr %24, align 1, !tbaa !4
  %26 = zext i8 %25 to i64
  %27 = shl nuw nsw i64 %26, 48
  %28 = or disjoint i64 %27, %23
  %29 = getelementptr inbounds nuw i8, ptr %0, i64 2
  %30 = load i8, ptr %29, align 1, !tbaa !4
  %31 = zext i8 %30 to i64
  %32 = shl nuw nsw i64 %31, 40
  %33 = or disjoint i64 %28, %32
  %34 = getelementptr inbounds nuw i8, ptr %0, i64 3
  %35 = load i8, ptr %34, align 1, !tbaa !4
  %36 = zext i8 %35 to i64
  %37 = shl nuw nsw i64 %36, 32
  %38 = or disjoint i64 %33, %37
  %39 = getelementptr inbounds nuw i8, ptr %0, i64 4
  %40 = load i8, ptr %39, align 1, !tbaa !4
  %41 = zext i8 %40 to i64
  %42 = shl nuw nsw i64 %41, 24
  %43 = or disjoint i64 %38, %42
  %44 = getelementptr inbounds nuw i8, ptr %0, i64 5
  %45 = load i8, ptr %44, align 1, !tbaa !4
  %46 = zext i8 %45 to i64
  %47 = shl nuw nsw i64 %46, 16
  %48 = or disjoint i64 %43, %47
  %49 = getelementptr inbounds nuw i8, ptr %0, i64 6
  %50 = load i8, ptr %49, align 1, !tbaa !4
  %51 = zext i8 %50 to i64
  %52 = shl nuw nsw i64 %51, 8
  %53 = or disjoint i64 %48, %52
  br label %.sink.split

.sink.split:                                      ; preds = %8, %10, %22
  %.sink24 = phi i64 [ 7, %22 ], [ 3, %10 ], [ 1, %8 ]
  %.sink = phi i64 [ %53, %22 ], [ %21, %10 ], [ %9, %8 ]
  %54 = getelementptr inbounds nuw i8, ptr %0, i64 %.sink24
  %55 = load i8, ptr %54, align 1, !tbaa !4
  %56 = zext i8 %55 to i64
  %57 = or i64 %.sink, %56
  br label %58

58:                                               ; preds = %.sink.split, %1
  %.0 = phi i64 [ %7, %1 ], [ %57, %.sink.split ]
  ret i64 %.0
}